(lp0
(lp1
S'2009'
p2
aS'1'
p3
aS'Pittsburgh Steelers'
p4
aS'Tennessee Titans'
p5
aa(lp6
g2
ag3
aS'Minnesota Vikings'
p7
aS'Cleveland Browns'
p8
aa(lp9
g2
ag3
aS'New York Giants'
p10
aS'Washington Redskins'
p11
aa(lp12
g2
ag3
aS'San Francisco 49ers'
p13
aS'Arizona Cardinals'
p14
aa(lp15
g2
ag3
aS'Seattle Seahawks'
p16
aS'St. Louis Rams'
p17
aa(lp18
g2
ag3
aS'Philadelphia Eagles'
p19
aS'Carolina Panthers'
p20
aa(lp21
g2
ag3
aS'New York Jets'
p22
aS'Houston Texans'
p23
aa(lp24
g2
ag3
aS'Atlanta Falcons'
p25
aS'Miami Dolphins'
p26
aa(lp27
g2
ag3
aS'Baltimore Ravens'
p28
aS'Kansas City Chiefs'
p29
aa(lp30
g2
ag3
aS'Indianapolis Colts'
p31
aS'Jacksonville Jaguars'
p32
aa(lp33
g2
ag3
aS'New Orleans Saints'
p34
aS'Detroit Lions'
p35
aa(lp36
g2
ag3
aS'Denver Broncos'
p37
aS'Cincinnati Bengals'
p38
aa(lp39
g2
ag3
aS'Green Bay Packers'
p40
aS'Chicago Bears'
p41
aa(lp42
g2
ag3
aS'Dallas Cowboys'
p43
aS'Tampa Bay Buccaneers'
p44
aa(lp45
g2
ag3
aS'New England Patriots'
p46
aS'Buffalo Bills'
p47
aa(lp48
g2
ag3
aS'San Diego Chargers'
p49
aS'Oakland Raiders'
p50
aa(lp51
g2
aS'2'
p52
ag10
ag43
aa(lp53
g2
ag52
ag41
ag4
aa(lp54
g2
ag52
ag50
ag29
aa(lp55
g2
ag52
ag11
ag17
aa(lp56
g2
ag52
ag28
ag49
aa(lp57
g2
ag52
ag13
ag16
aa(lp58
g2
ag52
ag47
ag44
aa(lp59
g2
ag52
ag22
ag46
aa(lp60
g2
ag52
ag34
ag19
aa(lp61
g2
ag52
ag25
ag20
aa(lp62
g2
ag52
ag38
ag40
aa(lp63
g2
ag52
ag37
ag8
aa(lp64
g2
ag52
ag14
ag32
aa(lp65
g2
ag52
ag23
ag5
aa(lp66
g2
ag52
ag7
ag35
aa(lp67
g2
ag52
ag31
ag26
aa(lp68
g2
aS'3'
p69
ag49
ag26
aa(lp70
g2
ag69
ag34
ag47
aa(lp71
g2
ag69
ag10
ag44
aa(lp72
g2
ag69
ag22
ag5
aa(lp73
g2
ag69
ag38
ag4
aa(lp74
g2
ag69
ag7
ag13
aa(lp75
g2
ag69
ag35
ag11
aa(lp76
g2
ag69
ag19
ag29
aa(lp77
g2
ag69
ag32
ag23
aa(lp78
g2
ag69
ag46
ag25
aa(lp79
g2
ag69
ag41
ag16
aa(lp80
g2
ag69
ag28
ag8
aa(lp81
g2
ag69
ag31
ag14
aa(lp82
g2
ag69
ag37
ag50
aa(lp83
g2
ag69
ag40
ag17
aa(lp84
g2
ag69
ag43
ag20
aa(lp85
g2
aS'4'
p86
ag23
ag50
aa(lp87
g2
ag86
ag13
ag17
aa(lp88
g2
ag86
ag46
ag28
aa(lp89
g2
ag86
ag4
ag49
aa(lp90
g2
ag86
ag11
ag44
aa(lp91
g2
ag86
ag32
ag5
aa(lp92
g2
ag86
ag34
ag22
aa(lp93
g2
ag86
ag10
ag29
aa(lp94
g2
ag86
ag31
ag16
aa(lp95
g2
ag86
ag41
ag35
aa(lp96
g2
ag86
ag37
ag43
aa(lp97
g2
ag86
ag38
ag8
aa(lp98
g2
ag86
ag26
ag47
aa(lp99
g2
ag86
ag7
ag40
aa(lp100
g2
aS'5'
p101
ag14
ag23
aa(lp102
g2
ag101
ag19
ag44
aa(lp103
g2
ag101
ag20
ag11
aa(lp104
g2
ag101
ag25
ag13
aa(lp105
g2
ag101
ag10
ag50
aa(lp106
g2
ag101
ag4
ag35
aa(lp107
g2
ag101
ag37
ag46
aa(lp108
g2
ag101
ag7
ag17
aa(lp109
g2
ag101
ag16
ag32
aa(lp110
g2
ag101
ag43
ag29
aa(lp111
g2
ag101
ag31
ag5
aa(lp112
g2
ag101
ag8
ag47
aa(lp113
g2
ag101
ag38
ag28
aa(lp114
g2
ag101
ag26
ag22
aa(lp115
g2
aS'6'
p116
ag50
ag19
aa(lp117
g2
ag116
ag14
ag16
aa(lp118
g2
ag116
ag25
ag41
aa(lp119
g2
ag116
ag20
ag44
aa(lp120
g2
ag116
ag34
ag10
aa(lp121
g2
ag116
ag32
ag17
aa(lp122
g2
ag116
ag7
ag28
aa(lp123
g2
ag116
ag46
ag5
aa(lp124
g2
ag116
ag29
ag11
aa(lp125
g2
ag116
ag23
ag38
aa(lp126
g2
ag116
ag40
ag35
aa(lp127
g2
ag116
ag4
ag8
aa(lp128
g2
ag116
ag47
ag22
aa(lp129
g2
ag116
ag37
ag49
aa(lp130
g2
aS'7'
p131
ag14
ag10
aa(lp132
g2
ag131
ag31
ag17
aa(lp133
g2
ag131
ag38
ag41
aa(lp134
g2
ag131
ag34
ag26
aa(lp135
g2
ag131
ag43
ag25
aa(lp136
g2
ag131
ag49
ag29
aa(lp137
g2
ag131
ag22
ag50
aa(lp138
g2
ag131
ag23
ag13
aa(lp139
g2
ag131
ag46
ag44
aa(lp140
g2
ag131
ag4
ag7
aa(lp141
g2
ag131
ag40
ag8
aa(lp142
g2
ag131
ag47
ag20
aa(lp143
g2
ag131
ag19
ag11
aa(lp144
g2
aS'8'
p145
ag7
ag40
aa(lp146
g2
ag145
ag26
ag22
aa(lp147
g2
ag145
ag5
ag32
aa(lp148
g2
ag145
ag43
ag16
aa(lp149
g2
ag145
ag28
ag37
aa(lp150
g2
ag145
ag41
ag8
aa(lp151
g2
ag145
ag20
ag14
aa(lp152
g2
ag145
ag31
ag13
aa(lp153
g2
ag145
ag17
ag35
aa(lp154
g2
ag145
ag49
ag50
aa(lp155
g2
ag145
ag23
ag47
aa(lp156
g2
ag145
ag19
ag10
aa(lp157
g2
ag145
ag34
ag25
aa(lp158
S'2010'
p159
aS'9'
p160
ag25
ag11
aa(lp161
g159
ag160
ag38
ag28
aa(lp162
g159
ag160
ag5
ag13
aa(lp163
g159
ag160
ag46
ag26
aa(lp164
g159
ag160
ag32
ag29
aa(lp165
g159
ag160
ag31
ag23
aa(lp166
g159
ag160
ag44
ag40
aa(lp167
g159
ag160
ag16
ag35
aa(lp168
g159
ag160
ag43
ag19
aa(lp169
g159
ag160
ag34
ag20
aa(lp170
g159
ag160
ag14
ag41
aa(lp171
g159
ag160
ag49
ag10
aa(lp172
g159
ag160
ag4
ag37
aa(lp173
g159
aS'10'
p174
ag13
ag41
aa(lp175
g159
ag174
ag34
ag17
aa(lp176
g159
ag174
ag31
ag46
aa(lp177
g159
ag174
ag49
ag19
aa(lp178
g159
ag174
ag14
ag16
aa(lp179
g159
ag174
ag26
ag44
aa(lp180
g159
ag174
ag29
ag50
aa(lp181
g159
ag174
ag32
ag22
aa(lp182
g159
ag174
ag7
ag35
aa(lp183
g159
ag174
ag20
ag25
aa(lp184
g159
ag174
ag5
ag47
aa(lp185
g159
ag174
ag38
ag4
aa(lp186
g159
ag174
ag40
ag43
aa(lp187
g159
ag174
ag11
ag37
aa(lp188
g159
ag174
ag28
ag8
aa(lp189
g159
aS'11'
p190
ag26
ag20
aa(lp191
g159
ag190
ag19
ag41
aa(lp192
g159
ag190
ag29
ag4
aa(lp193
g159
ag190
ag49
ag37
aa(lp194
g159
ag190
ag7
ag16
aa(lp195
g159
ag190
ag40
ag13
aa(lp196
g159
ag190
ag43
ag11
aa(lp197
g159
ag190
ag46
ag22
aa(lp198
g159
ag190
ag34
ag44
aa(lp199
g159
ag190
ag10
ag25
aa(lp200
g159
ag190
ag32
ag47
aa(lp201
g159
ag190
ag50
ag38
aa(lp202
g159
ag190
ag35
ag8
aa(lp203
g159
ag190
ag31
ag28
aa(lp204
g159
ag190
ag14
ag17
aa(lp205
g159
ag190
ag5
ag23
aa(lp206
g159
aS'12'
p207
ag37
ag10
aa(lp208
g159
ag207
ag40
ag35
aa(lp209
g159
ag207
ag43
ag50
aa(lp210
g159
ag207
ag28
ag4
aa(lp211
g159
ag207
ag16
ag17
aa(lp212
g159
ag207
ag25
ag44
aa(lp213
g159
ag207
ag19
ag11
aa(lp214
g159
ag207
ag47
ag26
aa(lp215
g159
ag207
ag49
ag29
aa(lp216
g159
ag207
ag13
ag32
aa(lp217
g159
ag207
ag5
ag14
aa(lp218
g159
ag207
ag31
ag23
aa(lp219
g159
ag207
ag38
ag8
aa(lp220
g159
ag207
ag7
ag41
aa.